; Function Attrs: mustprogress nounwind uwtable
define hidden noundef ptr @_ZNK7PhiNode12slice_memoryEPK7TypePtr(ptr noundef nonnull align 8 dereferenceable(88) %0, ptr noundef %1) local_unnamed_addr #2 align 2 {
  %3 = tail call noundef ptr @_ZNK4Node5cloneEv(ptr noundef nonnull align 8 dereferenceable(52) %0) #10
  %4 = getelementptr inbounds i8, ptr %3, i64 64
  store ptr %1, ptr %4, align 8
  %5 = getelementptr inbounds i8, ptr %0, i64 24
  %6 = load i32, ptr %5, align 8
  %7 = icmp ugt i32 %6, 1
  br i1 %7, label %.lr.ph.split.preheader, label %._crit_edge

.lr.ph.split.preheader:                           ; preds = %2
  %8 = getelementptr inbounds i8, ptr %0, i64 8
  %9 = getelementptr inbounds i8, ptr %3, i64 8
  %10 = getelementptr inbounds i8, ptr %3, i64 16
  %11 = getelementptr inbounds i8, ptr %3, i64 32
  %12 = getelementptr inbounds i8, ptr %3, i64 36
  br label %.lr.ph.split

.lr.ph.split:                                     ; preds = %.lr.ph.split.preheader, %_ZN4Node7set_reqEjPS_.exit
  %indvars.iv = phi i64 [ 1, %.lr.ph.split.preheader ], [ %indvars.iv.next, %_ZN4Node7set_reqEjPS_.exit ]
  %13 = load ptr, ptr %8, align 8
  %14 = getelementptr inbounds ptr, ptr %13, i64 %indvars.iv
  %15 = load ptr, ptr %14, align 8
  %16 = icmp eq ptr %15, %0
  br i1 %16, label %17, label %_ZN4Node7set_reqEjPS_.exit

17:                                               ; preds = %.lr.ph.split
  %18 = load ptr, ptr %9, align 8
  %19 = getelementptr inbounds ptr, ptr %18, i64 %indvars.iv
  %20 = load ptr, ptr %19, align 8
  %.not.i = icmp eq ptr %20, null
  br i1 %.not.i, label %_ZN4Node7del_outEPS_.exit.i.thread, label %21

21:                                               ; preds = %17
  %22 = getelementptr inbounds i8, ptr %20, i64 16
  %23 = load ptr, ptr %22, align 8
  %24 = icmp eq ptr %23, null
  br i1 %24, label %_ZN4Node7del_outEPS_.exit.i.thread, label %25

25:                                               ; preds = %21
  %26 = getelementptr inbounds i8, ptr %20, i64 32
  %27 = load i32, ptr %26, align 8
  %28 = zext i32 %27 to i64
  %29 = getelementptr inbounds ptr, ptr %23, i64 %28
  br label %30

30:                                               ; preds = %30, %25
  %.0.i.i = phi ptr [ %29, %25 ], [ %31, %30 ]
  %31 = getelementptr inbounds i8, ptr %.0.i.i, i64 -8
  %32 = load ptr, ptr %31, align 8
  %.not.i.i = icmp eq ptr %32, %3
  br i1 %.not.i.i, label %_ZN4Node7del_outEPS_.exit.i, label %30, !llvm.loop !16

_ZN4Node7del_outEPS_.exit.i:                      ; preds = %30
  %33 = add i32 %27, -1
  store i32 %33, ptr %26, align 8
  %34 = zext i32 %33 to i64
  %35 = getelementptr inbounds ptr, ptr %23, i64 %34
  %36 = load ptr, ptr %35, align 8
  store ptr %36, ptr %31, align 8
  br label %_ZN4Node7del_outEPS_.exit.i.thread

_ZN4Node7del_outEPS_.exit.i.thread:               ; preds = %17, %21, %_ZN4Node7del_outEPS_.exit.i
  store ptr %3, ptr %19, align 8
  %37 = load ptr, ptr %10, align 8
  %38 = icmp eq ptr %37, null
  br i1 %38, label %_ZN4Node7set_reqEjPS_.exit, label %39

39:                                               ; preds = %_ZN4Node7del_outEPS_.exit.i.thread
  %40 = load i32, ptr %11, align 8
  %41 = load i32, ptr %12, align 4
  %42 = icmp eq i32 %40, %41
  br i1 %42, label %43, label %44

43:                                               ; preds = %39
  tail call void @_ZN4Node8out_growEj(ptr noundef nonnull align 8 dereferenceable(52) %3, i32 noundef %40) #10
  %.pre.i.i = load ptr, ptr %10, align 8
  %.pre2.i.i = load i32, ptr %11, align 8
  br label %44

44:                                               ; preds = %43, %39
  %45 = phi i32 [ %.pre2.i.i, %43 ], [ %40, %39 ]
  %46 = phi ptr [ %.pre.i.i, %43 ], [ %37, %39 ]
  %47 = add i32 %45, 1
  store i32 %47, ptr %11, align 8
  %48 = zext i32 %45 to i64
  %49 = getelementptr inbounds ptr, ptr %46, i64 %48
  store ptr %3, ptr %49, align 8
  br label %_ZN4Node7set_reqEjPS_.exit

_ZN4Node7set_reqEjPS_.exit:                       ; preds = %44, %_ZN4Node7del_outEPS_.exit.i.thread, %.lr.ph.split
  %indvars.iv.next = add nuw nsw i64 %indvars.iv, 1
  %50 = load i32, ptr %5, align 8
  %51 = zext i32 %50 to i64
  %52 = icmp ult i64 %indvars.iv.next, %51
  br i1 %52, label %.lr.ph.split, label %._crit_edge, !llvm.loop !35

._crit_edge:                                      ; preds = %_ZN4Node7set_reqEjPS_.exit, %2
  ret ptr %3
}